target datalayout = "e-m:e-p270:32:32-p271:32:32-p272:64:64-i64:64-i128:128-f80:128-n8:16:32:64-S128"
target triple = "x86_64-pc-linux-gnu"

%struct.Jpeg2000TgtNode = type { i8, i8, i8, ptr }

@.str.2 = private unnamed_addr constant [30 x i8] c"Assertion %s failed at %s:%d\0A\00", align 1
@.str.3 = private unnamed_addr constant [23 x i8] c"res + 1 < (2147483647)\00", align 1
@.str.4 = private unnamed_addr constant [22 x i8] c"libavcodec/jpeg2000.c\00", align 1

; Function Attrs: nounwind uwtable
define internal i32 @tag_tree_size(i32 noundef %0, i32 noundef %1) #0 {
  %3 = alloca i32, align 4
  %4 = alloca i32, align 4
  %5 = alloca i64, align 8
  store i32 %0, ptr %3, align 4, !tbaa !9
  store i32 %1, ptr %4, align 4, !tbaa !9
  call void @llvm.lifetime.start.p0(i64 8, ptr %5) #8
  store i64 0, ptr %5, align 8, !tbaa !17
  br label %6

6:                                                ; preds = %29, %2
  %7 = load i32, ptr %3, align 4, !tbaa !9
  %8 = icmp sgt i32 %7, 1
  br i1 %8, label %12, label %9

9:                                                ; preds = %6
  %10 = load i32, ptr %4, align 4, !tbaa !9
  %11 = icmp sgt i32 %10, 1
  br label %12

12:                                               ; preds = %9, %6
  %13 = phi i1 [ true, %6 ], [ %11, %9 ]
  br i1 %13, label %14, label %36

14:                                               ; preds = %12
  %15 = load i32, ptr %3, align 4, !tbaa !9
  %16 = sext i32 %15 to i64
  %17 = load i32, ptr %4, align 4, !tbaa !9
  %18 = sext i32 %17 to i64
  %19 = mul nsw i64 %16, %18
  %20 = load i64, ptr %5, align 8, !tbaa !17
  %21 = add nsw i64 %20, %19
  store i64 %21, ptr %5, align 8, !tbaa !17
  br label %22

22:                                               ; preds = %14
  %23 = load i64, ptr %5, align 8, !tbaa !17
  %24 = add nsw i64 %23, 1
  %25 = icmp slt i64 %24, 2147483647
  br i1 %25, label %27, label %26

26:                                               ; preds = %22
  call void (ptr, i32, ptr, ...) @av_log(ptr noundef null, i32 noundef 0, ptr noundef @.str.2, ptr noundef @.str.3, ptr noundef @.str.4, i32 noundef 47)
  call void @abort() #9
  unreachable

27:                                               ; preds = %22
  br label %28

28:                                               ; preds = %27
  br label %29

29:                                               ; preds = %28
  %30 = load i32, ptr %3, align 4, !tbaa !9
  %31 = add nsw i32 %30, 1
  %32 = ashr i32 %31, 1
  store i32 %32, ptr %3, align 4, !tbaa !9
  %33 = load i32, ptr %4, align 4, !tbaa !9
  %34 = add nsw i32 %33, 1
  %35 = ashr i32 %34, 1
  store i32 %35, ptr %4, align 4, !tbaa !9
  br label %6, !llvm.loop !19

36:                                               ; preds = %12
  %37 = load i64, ptr %5, align 8, !tbaa !17
  %38 = add nsw i64 %37, 1
  %39 = trunc i64 %38 to i32
  call void @llvm.lifetime.end.p0(i64 8, ptr %5) #8
  ret i32 %39
}

; Function Attrs: nounwind uwtable
define internal ptr @ff_jpeg2000_tag_tree_init(i32 noundef %0, i32 noundef %1) #0 {
  %3 = alloca ptr, align 8
  %4 = alloca i32, align 4
  %5 = alloca i32, align 4
  %6 = alloca i32, align 4
  %7 = alloca i32, align 4
  %8 = alloca ptr, align 8
  %9 = alloca ptr, align 8
  %10 = alloca ptr, align 8
  %11 = alloca i32, align 4
  %12 = alloca i32, align 4
  %13 = alloca i32, align 4
  %14 = alloca i32, align 4
  store i32 %0, ptr %4, align 4, !tbaa !9
  store i32 %1, ptr %5, align 4, !tbaa !9
  call void @llvm.lifetime.start.p0(i64 4, ptr %6) #8
  %15 = load i32, ptr %4, align 4, !tbaa !9
  store i32 %15, ptr %6, align 4, !tbaa !9
  call void @llvm.lifetime.start.p0(i64 4, ptr %7) #8
  %16 = load i32, ptr %5, align 4, !tbaa !9
  store i32 %16, ptr %7, align 4, !tbaa !9
  call void @llvm.lifetime.start.p0(i64 8, ptr %8) #8
  call void @llvm.lifetime.start.p0(i64 8, ptr %9) #8
  call void @llvm.lifetime.start.p0(i64 8, ptr %10) #8
  call void @llvm.lifetime.start.p0(i64 4, ptr %11) #8
  %17 = load i32, ptr %4, align 4, !tbaa !9
  %18 = load i32, ptr %5, align 4, !tbaa !9
  %19 = call i32 @tag_tree_size(i32 noundef %17, i32 noundef %18)
  store i32 %19, ptr %11, align 4, !tbaa !9
  %20 = load i32, ptr %11, align 4, !tbaa !9
  %21 = sext i32 %20 to i64
  %22 = call noalias ptr @av_calloc(i64 noundef %21, i64 noundef 16)
  store ptr %22, ptr %8, align 8, !tbaa !4
  store ptr %22, ptr %9, align 8, !tbaa !4
  %23 = load ptr, ptr %8, align 8, !tbaa !4
  %24 = icmp ne ptr %23, null
  br i1 %24, label %26, label %25

25:                                               ; preds = %2
  store ptr null, ptr %3, align 8
  store i32 1, ptr %12, align 4
  br label %93

26:                                               ; preds = %2
  br label %27

27:                                               ; preds = %86, %26
  %28 = load i32, ptr %4, align 4, !tbaa !9
  %29 = icmp sgt i32 %28, 1
  br i1 %29, label %33, label %30

30:                                               ; preds = %27
  %31 = load i32, ptr %5, align 4, !tbaa !9
  %32 = icmp sgt i32 %31, 1
  br label %33

33:                                               ; preds = %30, %27
  %34 = phi i1 [ true, %27 ], [ %32, %30 ]
  br i1 %34, label %35, label %88

35:                                               ; preds = %33
  call void @llvm.lifetime.start.p0(i64 4, ptr %13) #8
  call void @llvm.lifetime.start.p0(i64 4, ptr %14) #8
  %36 = load i32, ptr %4, align 4, !tbaa !9
  store i32 %36, ptr %6, align 4, !tbaa !9
  %37 = load i32, ptr %5, align 4, !tbaa !9
  store i32 %37, ptr %7, align 4, !tbaa !9
  %38 = load i32, ptr %4, align 4, !tbaa !9
  %39 = add nsw i32 %38, 1
  %40 = ashr i32 %39, 1
  store i32 %40, ptr %4, align 4, !tbaa !9
  %41 = load i32, ptr %5, align 4, !tbaa !9
  %42 = add nsw i32 %41, 1
  %43 = ashr i32 %42, 1
  store i32 %43, ptr %5, align 4, !tbaa !9
  %44 = load ptr, ptr %9, align 8, !tbaa !4
  %45 = load i32, ptr %6, align 4, !tbaa !9
  %46 = load i32, ptr %7, align 4, !tbaa !9
  %47 = mul nsw i32 %45, %46
  %48 = sext i32 %47 to i64
  %49 = getelementptr inbounds %struct.Jpeg2000TgtNode, ptr %44, i64 %48
  store ptr %49, ptr %10, align 8, !tbaa !4
  store i32 0, ptr %13, align 4, !tbaa !9
  br label %50

50:                                               ; preds = %83, %35
  %51 = load i32, ptr %13, align 4, !tbaa !9
  %52 = load i32, ptr %7, align 4, !tbaa !9
  %53 = icmp slt i32 %51, %52
  br i1 %53, label %54, label %86

54:                                               ; preds = %50
  store i32 0, ptr %14, align 4, !tbaa !9
  br label %55

55:                                               ; preds = %79, %54
  %56 = load i32, ptr %14, align 4, !tbaa !9
  %57 = load i32, ptr %6, align 4, !tbaa !9
  %58 = icmp slt i32 %56, %57
  br i1 %58, label %59, label %82

59:                                               ; preds = %55
  %60 = load ptr, ptr %10, align 8, !tbaa !4
  %61 = load i32, ptr %13, align 4, !tbaa !9
  %62 = ashr i32 %61, 1
  %63 = load i32, ptr %4, align 4, !tbaa !9
  %64 = mul nsw i32 %62, %63
  %65 = load i32, ptr %14, align 4, !tbaa !9
  %66 = ashr i32 %65, 1
  %67 = add nsw i32 %64, %66
  %68 = sext i32 %67 to i64
  %69 = getelementptr inbounds %struct.Jpeg2000TgtNode, ptr %60, i64 %68
  %70 = load ptr, ptr %9, align 8, !tbaa !4
  %71 = load i32, ptr %13, align 4, !tbaa !9
  %72 = load i32, ptr %6, align 4, !tbaa !9
  %73 = mul nsw i32 %71, %72
  %74 = load i32, ptr %14, align 4, !tbaa !9
  %75 = add nsw i32 %73, %74
  %76 = sext i32 %75 to i64
  %77 = getelementptr inbounds %struct.Jpeg2000TgtNode, ptr %70, i64 %76
  %78 = getelementptr inbounds nuw %struct.Jpeg2000TgtNode, ptr %77, i32 0, i32 3
  store ptr %69, ptr %78, align 8, !tbaa !128
  br label %79

79:                                               ; preds = %59
  %80 = load i32, ptr %14, align 4, !tbaa !9
  %81 = add nsw i32 %80, 1
  store i32 %81, ptr %14, align 4, !tbaa !9
  br label %55, !llvm.loop !129

82:                                               ; preds = %55
  br label %83

83:                                               ; preds = %82
  %84 = load i32, ptr %13, align 4, !tbaa !9
  %85 = add nsw i32 %84, 1
  store i32 %85, ptr %13, align 4, !tbaa !9
  br label %50, !llvm.loop !130

86:                                               ; preds = %50
  %87 = load ptr, ptr %10, align 8, !tbaa !4
  store ptr %87, ptr %9, align 8, !tbaa !4
  call void @llvm.lifetime.end.p0(i64 4, ptr %14) #8
  call void @llvm.lifetime.end.p0(i64 4, ptr %13) #8
  br label %27, !llvm.loop !131

88:                                               ; preds = %33
  %89 = load ptr, ptr %9, align 8, !tbaa !4
  %90 = getelementptr inbounds %struct.Jpeg2000TgtNode, ptr %89, i64 0
  %91 = getelementptr inbounds nuw %struct.Jpeg2000TgtNode, ptr %90, i32 0, i32 3
  store ptr null, ptr %91, align 8, !tbaa !128
  %92 = load ptr, ptr %8, align 8, !tbaa !4
  store ptr %92, ptr %3, align 8
  store i32 1, ptr %12, align 4
  br label %93

93:                                               ; preds = %88, %25
  call void @llvm.lifetime.end.p0(i64 4, ptr %11) #8
  call void @llvm.lifetime.end.p0(i64 8, ptr %10) #8
  call void @llvm.lifetime.end.p0(i64 8, ptr %9) #8
  call void @llvm.lifetime.end.p0(i64 8, ptr %8) #8
  call void @llvm.lifetime.end.p0(i64 4, ptr %7) #8
  call void @llvm.lifetime.end.p0(i64 4, ptr %6) #8
  %94 = load ptr, ptr %3, align 8
  ret ptr %94
}