; Function Attrs: nounwind uwtable
define internal fastcc ptr @ff_jpeg2000_tag_tree_init(i32 noundef %0, i32 noundef %1) unnamed_addr #0 {
  %3 = icmp sgt i32 %0, 1
  %4 = icmp sgt i32 %1, 1
  %5 = or i1 %3, %4
  br i1 %5, label %.lr.ph.i, label %tag_tree_size.exit.thread

.lr.ph.i:                                         ; preds = %2, %12
  %.014.i = phi i64 [ %9, %12 ], [ 0, %2 ]
  %.0913.i = phi i32 [ %16, %12 ], [ %1, %2 ]
  %.01012.i = phi i32 [ %14, %12 ], [ %0, %2 ]
  %6 = sext i32 %.01012.i to i64
  %7 = sext i32 %.0913.i to i64
  %8 = mul nsw i64 %6, %7
  %9 = add nsw i64 %8, %.014.i
  %10 = icmp slt i64 %9, 2147483646
  br i1 %10, label %12, label %11

11:                                               ; preds = %.lr.ph.i
  tail call void (ptr, i32, ptr, ...) @av_log(ptr noundef null, i32 noundef 0, ptr noundef nonnull @.str.2, ptr noundef nonnull @.str.3, ptr noundef nonnull @.str.4, i32 noundef 47) #8
  tail call void @abort() #9
  unreachable

12:                                               ; preds = %.lr.ph.i
  %13 = add nsw i32 %.01012.i, 1
  %14 = ashr i32 %13, 1
  %15 = add nsw i32 %.0913.i, 1
  %16 = ashr i32 %15, 1
  %17 = icmp sgt i32 %14, 1
  %18 = icmp sgt i32 %16, 1
  %19 = select i1 %17, i1 true, i1 %18
  br i1 %19, label %.lr.ph.i, label %tag_tree_size.exit, !llvm.loop !4

tag_tree_size.exit:                               ; preds = %12
  %20 = shl i64 %9, 32
  %sext = add i64 %20, 4294967296
  %21 = ashr exact i64 %sext, 32
  %22 = tail call noalias ptr @av_calloc(i64 noundef %21, i64 noundef 16) #8
  %.not = icmp eq ptr %22, null
  br i1 %.not, label %51, label %.lr.ph

tag_tree_size.exit.thread:                        ; preds = %2
  %23 = tail call noalias ptr @av_calloc(i64 noundef 1, i64 noundef 16) #8
  %.not55 = icmp eq ptr %23, null
  br i1 %.not55, label %51, label %._crit_edge

.loopexit:                                        ; preds = %._crit_edge.us, %.lr.ph
  %24 = icmp sgt i32 %28, 1
  %25 = icmp sgt i32 %30, 1
  %26 = select i1 %24, i1 true, i1 %25
  br i1 %26, label %.lr.ph, label %._crit_edge, !llvm.loop !109

.lr.ph:                                           ; preds = %tag_tree_size.exit, %.loopexit
  %.03444 = phi i32 [ %28, %.loopexit ], [ %0, %tag_tree_size.exit ]
  %.03543 = phi ptr [ %33, %.loopexit ], [ %22, %tag_tree_size.exit ]
  %.03642 = phi i32 [ %30, %.loopexit ], [ %1, %tag_tree_size.exit ]
  %27 = add nsw i32 %.03444, 1
  %28 = ashr i32 %27, 1
  %29 = add nsw i32 %.03642, 1
  %30 = ashr i32 %29, 1
  %31 = mul nsw i32 %.03444, %.03642
  %32 = sext i32 %31 to i64
  %33 = getelementptr inbounds %struct.Jpeg2000TgtNode, ptr %.03543, i64 %32
  %34 = icmp sgt i32 %.03642, 0
  %35 = icmp sgt i32 %.03444, 0
  %or.cond = select i1 %34, i1 %35, i1 false
  br i1 %or.cond, label %.preheader.us.preheader, label %.loopexit

.preheader.us.preheader:                          ; preds = %.lr.ph
  %36 = zext nneg i32 %.03444 to i64
  %wide.trip.count52 = zext nneg i32 %.03642 to i64
  br label %.preheader.us

.preheader.us:                                    ; preds = %.preheader.us.preheader, %._crit_edge.us
  %indvars.iv49 = phi i64 [ 0, %.preheader.us.preheader ], [ %indvars.iv.next50, %._crit_edge.us ]
  %37 = trunc nuw nsw i64 %indvars.iv49 to i32
  %38 = lshr i32 %37, 1
  %39 = mul nuw nsw i32 %38, %28
  %40 = mul nuw nsw i64 %indvars.iv49, %36
  br label %41

41:                                               ; preds = %.preheader.us, %41
  %indvars.iv = phi i64 [ 0, %.preheader.us ], [ %indvars.iv.next, %41 ]
  %42 = trunc nuw nsw i64 %indvars.iv to i32
  %43 = lshr i32 %42, 1
  %44 = add nuw nsw i32 %43, %39
  %45 = zext nneg i32 %44 to i64
  %46 = getelementptr inbounds nuw %struct.Jpeg2000TgtNode, ptr %33, i64 %45
  %47 = add nuw nsw i64 %indvars.iv, %40
  %48 = getelementptr inbounds nuw %struct.Jpeg2000TgtNode, ptr %.03543, i64 %47, i32 3
  store ptr %46, ptr %48, align 8, !tbaa !110
  %indvars.iv.next = add nuw nsw i64 %indvars.iv, 1
  %exitcond.not = icmp eq i64 %indvars.iv.next, %36
  br i1 %exitcond.not, label %._crit_edge.us, label %41, !llvm.loop !111

._crit_edge.us:                                   ; preds = %41
  %indvars.iv.next50 = add nuw nsw i64 %indvars.iv49, 1
  %exitcond53.not = icmp eq i64 %indvars.iv.next50, %wide.trip.count52
  br i1 %exitcond53.not, label %.loopexit, label %.preheader.us, !llvm.loop !112

._crit_edge:                                      ; preds = %.loopexit, %tag_tree_size.exit.thread
  %49 = phi ptr [ %23, %tag_tree_size.exit.thread ], [ %22, %.loopexit ]
  %.035.lcssa = phi ptr [ %23, %tag_tree_size.exit.thread ], [ %33, %.loopexit ]
  %50 = getelementptr inbounds nuw i8, ptr %.035.lcssa, i64 8
  store ptr null, ptr %50, align 8, !tbaa !110
  br label %51

51:                                               ; preds = %tag_tree_size.exit.thread, %tag_tree_size.exit, %._crit_edge
  %52 = phi ptr [ null, %tag_tree_size.exit.thread ], [ null, %tag_tree_size.exit ], [ %49, %._crit_edge ]
  ret ptr %52
}